target datalayout = "e-m:e-p270:32:32-p271:32:32-p272:64:64-i64:64-i128:128-f80:128-n8:16:32:64-S128"
target triple = "x86_64-pc-linux-gnu"

; Function Attrs: nounwind sspstrong uwtable
define dso_local void @grabbag__cuesheet_frame_to_msf(i32 noundef %0, ptr noundef %1, ptr noundef %2, ptr noundef %3) #0 {
  %5 = alloca i32, align 4
  %6 = alloca ptr, align 8
  %7 = alloca ptr, align 8
  %8 = alloca ptr, align 8
  store i32 %0, ptr %5, align 4, !tbaa !4
  store ptr %1, ptr %6, align 8, !tbaa !8
  store ptr %2, ptr %7, align 8, !tbaa !8
  store ptr %3, ptr %8, align 8, !tbaa !8
  %9 = load i32, ptr %5, align 4, !tbaa !4
  %10 = urem i32 %9, 75
  %11 = load ptr, ptr %8, align 8, !tbaa !8
  store i32 %10, ptr %11, align 4, !tbaa !4
  %12 = load i32, ptr %5, align 4, !tbaa !4
  %13 = udiv i32 %12, 75
  store i32 %13, ptr %5, align 4, !tbaa !4
  %14 = load i32, ptr %5, align 4, !tbaa !4
  %15 = urem i32 %14, 60
  %16 = load ptr, ptr %7, align 8, !tbaa !8
  store i32 %15, ptr %16, align 4, !tbaa !4
  %17 = load i32, ptr %5, align 4, !tbaa !4
  %18 = udiv i32 %17, 60
  store i32 %18, ptr %5, align 4, !tbaa !4
  %19 = load i32, ptr %5, align 4, !tbaa !4
  %20 = load ptr, ptr %6, align 8, !tbaa !8
  store i32 %19, ptr %20, align 4, !tbaa !4
  ret void
}