; Function Attrs: mustprogress nofree norecurse nosync nounwind sspstrong willreturn memory(argmem: write) uwtable
define dso_local void @grabbag__cuesheet_frame_to_msf(i32 noundef %0, ptr noundef writeonly captures(none) initializes((0, 4)) %1, ptr noundef writeonly captures(none) initializes((0, 4)) %2, ptr noundef writeonly captures(none) initializes((0, 4)) %3) local_unnamed_addr #1 {
  %5 = urem i32 %0, 75
  store i32 %5, ptr %3, align 4, !tbaa !4
  %6 = udiv i32 %0, 75
  %7 = urem i32 %6, 60
  store i32 %7, ptr %2, align 4, !tbaa !4
  %8 = udiv i32 %0, 4500
  store i32 %8, ptr %1, align 4, !tbaa !4
  ret void
}